#include <math.h>
#include <stdio.h>
#include <stdlib.h>
#include <string.h>

int main()
{
char sen[100];
int z,y,i,j,l,t,m;
while(gets(sen))
{
	z=0;y=0;
	l=strlen(sen);
	printf("%s\n",sen);

    for(i=0;i<l;i++)
	{
       if(sen[i]=='(')
	   {z++;}
	   if(sen[i]==')')
	   {y++;}
	}
	   if(z>y)
	   {
		   m=y;
	   }
	   else
	   {
		   m=z;
	   }
	   
	for(i=0;i<m;i++)
	{
		j=1;
		for(t=0;t<l;t++)
		{
	      if(sen[t]=='(')
		  {
		     j=0;z=t;
		  }
	     if(sen[t]==')')
		 { 
		   if(j==0)
		   {
			   sen[z]='0';
			   sen[t]='0';
		   }
		   j=1;
		 }
		}
	}
	for(i=0;i<l;i++)
	{
		if(sen[i]=='(')
		{
			printf("$");
		}
		else if(sen[i]==')')
		{
			printf("?");
		}
		else if((sen[i]!='(')&&(sen[i]!=')'))
		{
			printf(" ");
		}
	}
	printf("\n");
	}
return 0;
}
